target datalayout = "e-m:e-p270:32:32-p271:32:32-p272:64:64-i64:64-f80:128-n8:16:32:64-S128"
target triple = "x86_64-pc-linux-gnu"

@.str = private unnamed_addr constant [4 x i8] c"%d\0A\00", align 1
@.str.1 = private unnamed_addr constant [3 x i8] c"%s\00", align 1
@.str.2 = private unnamed_addr constant [4 x i8] c"no\0A\00", align 1
@.str.3 = private unnamed_addr constant [4 x i8] c"%c\0A\00", align 1

; Function Attrs: noinline nounwind uwtable
define dso_local i32 @main() #0 {
  %1 = alloca i32, align 4
  %2 = alloca i32, align 4
  %3 = alloca i32, align 4
  %4 = alloca [30 x i32], align 16
  %5 = alloca i32, align 4
  %6 = alloca i32, align 4
  %7 = alloca [150000 x i8], align 16
  store i32 0, i32* %1, align 4
  %8 = call i32 (i8*, ...) @__isoc99_scanf(i8* getelementptr inbounds ([4 x i8], [4 x i8]* @.str, i64 0, i64 0), i32* %2)
  store i32 1, i32* %3, align 4
  br label %9

9:                                                ; preds = %95, %0
  %10 = load i32, i32* %3, align 4
  %11 = load i32, i32* %2, align 4
  %12 = icmp sle i32 %10, %11
  br i1 %12, label %13, label %98

13:                                               ; preds = %9
  %14 = getelementptr inbounds [150000 x i8], [150000 x i8]* %7, i64 0, i64 0
  %15 = call i32 (i8*, ...) @__isoc99_scanf(i8* getelementptr inbounds ([3 x i8], [3 x i8]* @.str.1, i64 0, i64 0), i8* %14)
  %16 = getelementptr inbounds [30 x i32], [30 x i32]* %4, i64 0, i64 0
  %17 = bitcast i32* %16 to i8*
  call void @llvm.memset.p0i8.i64(i8* align 16 %17, i8 -1, i64 120, i1 false)
  %18 = getelementptr inbounds [30 x i32], [30 x i32]* %4, i64 0, i64 0
  store i32 1000000, i32* %18, align 16
  store i32 0, i32* %6, align 4
  br label %19

19:                                               ; preds = %56, %13
  %20 = load i32, i32* %6, align 4
  %21 = sext i32 %20 to i64
  %22 = getelementptr inbounds [150000 x i8], [150000 x i8]* %7, i64 0, i64 0
  %23 = call i64 @strlen(i8* %22) #4
  %24 = icmp ult i64 %21, %23
  br i1 %24, label %25, label %59

25:                                               ; preds = %19
  %26 = load i32, i32* %6, align 4
  %27 = sext i32 %26 to i64
  %28 = getelementptr inbounds [150000 x i8], [150000 x i8]* %7, i64 0, i64 %27
  %29 = load i8, i8* %28, align 1
  %30 = sext i8 %29 to i32
  %31 = sub nsw i32 %30, 96
  %32 = sext i32 %31 to i64
  %33 = getelementptr inbounds [30 x i32], [30 x i32]* %4, i64 0, i64 %32
  %34 = load i32, i32* %33, align 4
  %35 = icmp eq i32 %34, -1
  br i1 %35, label %36, label %46

36:                                               ; preds = %25
  %37 = load i32, i32* %6, align 4
  %38 = load i32, i32* %6, align 4
  %39 = sext i32 %38 to i64
  %40 = getelementptr inbounds [150000 x i8], [150000 x i8]* %7, i64 0, i64 %39
  %41 = load i8, i8* %40, align 1
  %42 = sext i8 %41 to i32
  %43 = sub nsw i32 %42, 96
  %44 = sext i32 %43 to i64
  %45 = getelementptr inbounds [30 x i32], [30 x i32]* %4, i64 0, i64 %44
  store i32 %37, i32* %45, align 4
  br label %55

46:                                               ; preds = %25
  %47 = load i32, i32* %6, align 4
  %48 = sext i32 %47 to i64
  %49 = getelementptr inbounds [150000 x i8], [150000 x i8]* %7, i64 0, i64 %48
  %50 = load i8, i8* %49, align 1
  %51 = sext i8 %50 to i32
  %52 = sub nsw i32 %51, 96
  %53 = sext i32 %52 to i64
  %54 = getelementptr inbounds [30 x i32], [30 x i32]* %4, i64 0, i64 %53
  store i32 -2, i32* %54, align 4
  br label %55

55:                                               ; preds = %46, %36
  br label %56

56:                                               ; preds = %55
  %57 = load i32, i32* %6, align 4
  %58 = add nsw i32 %57, 1
  store i32 %58, i32* %6, align 4
  br label %19

59:                                               ; preds = %19
  store i32 0, i32* %5, align 4
  store i32 1, i32* %6, align 4
  br label %60

60:                                               ; preds = %82, %59
  %61 = load i32, i32* %6, align 4
  %62 = icmp sle i32 %61, 26
  br i1 %62, label %63, label %85

63:                                               ; preds = %60
  %64 = load i32, i32* %6, align 4
  %65 = sext i32 %64 to i64
  %66 = getelementptr inbounds [30 x i32], [30 x i32]* %4, i64 0, i64 %65
  %67 = load i32, i32* %66, align 4
  %68 = icmp sge i32 %67, 0
  br i1 %68, label %69, label %81

69:                                               ; preds = %63
  %70 = load i32, i32* %6, align 4
  %71 = sext i32 %70 to i64
  %72 = getelementptr inbounds [30 x i32], [30 x i32]* %4, i64 0, i64 %71
  %73 = load i32, i32* %72, align 4
  %74 = load i32, i32* %5, align 4
  %75 = sext i32 %74 to i64
  %76 = getelementptr inbounds [30 x i32], [30 x i32]* %4, i64 0, i64 %75
  %77 = load i32, i32* %76, align 4
  %78 = icmp slt i32 %73, %77
  br i1 %78, label %79, label %81

79:                                               ; preds = %69
  %80 = load i32, i32* %6, align 4
  store i32 %80, i32* %5, align 4
  br label %81

81:                                               ; preds = %79, %69, %63
  br label %82

82:                                               ; preds = %81
  %83 = load i32, i32* %6, align 4
  %84 = add nsw i32 %83, 1
  store i32 %84, i32* %6, align 4
  br label %60

85:                                               ; preds = %60
  %86 = load i32, i32* %5, align 4
  %87 = icmp eq i32 %86, 0
  br i1 %87, label %88, label %90

88:                                               ; preds = %85
  %89 = call i32 (i8*, ...) @printf(i8* getelementptr inbounds ([4 x i8], [4 x i8]* @.str.2, i64 0, i64 0))
  br label %94

90:                                               ; preds = %85
  %91 = load i32, i32* %5, align 4
  %92 = add nsw i32 %91, 96
  %93 = call i32 (i8*, ...) @printf(i8* getelementptr inbounds ([4 x i8], [4 x i8]* @.str.3, i64 0, i64 0), i32 %92)
  br label %94

94:                                               ; preds = %90, %88
  br label %95

95:                                               ; preds = %94
  %96 = load i32, i32* %3, align 4
  %97 = add nsw i32 %96, 1
  store i32 %97, i32* %3, align 4
  br label %9

98:                                               ; preds = %9
  %99 = load i32, i32* %1, align 4
  ret i32 %99
}